; Function Attrs: mustprogress uwtable
define hidden void @_ZN8facebook6hermes7tracing14TracingRuntime11createArrayEm(ptr noalias sret(%"class.facebook::jsi::Array") align 8 %agg.result, ptr noundef nonnull align 8 dereferenceable(172) %this, i64 noundef %length) unnamed_addr #0 align 2 personality ptr @__gxx_personality_v0 {
invoke.cont:
  %length.addr = alloca i64, align 8
  %ref.tmp = alloca %"class.std::chrono::duration.37", align 8
  %ref.tmp2 = alloca i64, align 8
  store i64 %length, ptr %length.addr, align 8
  %plain_.i = getelementptr inbounds i8, ptr %this, i64 16
  %0 = load ptr, ptr %plain_.i, align 8, !noalias !229
  %vtable.i = load ptr, ptr %0, align 8, !noalias !229
  %vfn.i = getelementptr inbounds i8, ptr %vtable.i, i64 424
  %1 = load ptr, ptr %vfn.i, align 8, !noalias !229
  tail call void %1(ptr sret(%"class.facebook::jsi::Array") align 8 %agg.result, ptr noundef nonnull align 8 dereferenceable(8) %0, i64 noundef %length)
  %call.i = tail call i64 @_ZNSt6chrono3_V212steady_clock3nowEv() #27
  %startTime_.i = getelementptr inbounds i8, ptr %this, i64 160
  %retval.sroa.0.0.copyload.i1.i.i = load i64, ptr %startTime_.i, align 8
  %sub.i.i.i = sub nsw i64 %call.i, %retval.sroa.0.0.copyload.i1.i.i
  %div.i.i.i = sdiv i64 %sub.i.i.i, 1000000
  store i64 %div.i.i.i, ptr %ref.tmp, align 8
  %vtable = load ptr, ptr %this, align 8
  %vfn = getelementptr inbounds i8, ptr %vtable, i64 664
  %2 = load ptr, ptr %vfn, align 8
  %call4 = invoke noundef i64 %2(ptr noundef nonnull align 8 dereferenceable(172) %this, ptr noundef nonnull align 8 dereferenceable(8) %agg.result)
          to label %invoke.cont3 unwind label %lpad

invoke.cont3:                                     ; preds = %invoke.cont
  %trace_ = getelementptr inbounds i8, ptr %this, i64 32
  store i64 %call4, ptr %ref.tmp2, align 8
  invoke void @_ZN8facebook6hermes7tracing10SynthTrace12emplace_backINS2_17CreateArrayRecordEJNSt6chrono8durationIlSt5ratioILl1ELl1000EEEEmRmEEEvDpOT0_(ptr noundef nonnull align 8 dereferenceable(48) %trace_, ptr noundef nonnull align 8 dereferenceable(8) %ref.tmp, ptr noundef nonnull align 8 dereferenceable(8) %ref.tmp2, ptr noundef nonnull align 8 dereferenceable(8) %length.addr)
          to label %nrvo.skipdtor unwind label %lpad

lpad:                                             ; preds = %invoke.cont3, %invoke.cont
  %3 = landingpad { ptr, i32 }
          cleanup
  %4 = load ptr, ptr %agg.result, align 8
  %tobool.not.i.i.i = icmp eq ptr %4, null
  br i1 %tobool.not.i.i.i, label %_ZN8facebook3jsi5ArrayD2Ev.exit, label %if.then.i.i.i

if.then.i.i.i:                                    ; preds = %lpad
  %vtable.i.i.i = load ptr, ptr %4, align 8
  %5 = load ptr, ptr %vtable.i.i.i, align 8
  invoke void %5(ptr noundef nonnull align 8 dereferenceable(8) %4)
          to label %_ZN8facebook3jsi5ArrayD2Ev.exit unwind label %terminate.lpad.i.i.i

terminate.lpad.i.i.i:                             ; preds = %if.then.i.i.i
  %6 = landingpad { ptr, i32 }
          catch ptr null
  %7 = extractvalue { ptr, i32 } %6, 0
  call void @__clang_call_terminate(ptr %7) #29
  unreachable

_ZN8facebook3jsi5ArrayD2Ev.exit:                  ; preds = %lpad, %if.then.i.i.i
  resume { ptr, i32 } %3

nrvo.skipdtor:                                    ; preds = %invoke.cont3
  ret void
}